target datalayout = "e-m:e-p270:32:32-p271:32:32-p272:64:64-i64:64-i128:128-f80:128-n8:16:32:64-S128"
target triple = "x86_64-pc-linux-gnu"

; Function Attrs: nounwind uwtable
define dso_local void @BZ2_hbCreateDecodeTables(ptr noundef %0, ptr noundef %1, ptr noundef %2, ptr noundef %3, i32 noundef %4, i32 noundef %5, i32 noundef %6) #0 {
  %8 = alloca ptr, align 8
  %9 = alloca ptr, align 8
  %10 = alloca ptr, align 8
  %11 = alloca ptr, align 8
  %12 = alloca i32, align 4
  %13 = alloca i32, align 4
  %14 = alloca i32, align 4
  %15 = alloca i32, align 4
  %16 = alloca i32, align 4
  %17 = alloca i32, align 4
  %18 = alloca i32, align 4
  store ptr %0, ptr %8, align 8, !tbaa !9
  store ptr %1, ptr %9, align 8, !tbaa !9
  store ptr %2, ptr %10, align 8, !tbaa !9
  store ptr %3, ptr %11, align 8, !tbaa !4
  store i32 %4, ptr %12, align 4, !tbaa !11
  store i32 %5, ptr %13, align 4, !tbaa !11
  store i32 %6, ptr %14, align 4, !tbaa !11
  call void @llvm.lifetime.start.p0(i64 4, ptr %15) #3
  call void @llvm.lifetime.start.p0(i64 4, ptr %16) #3
  call void @llvm.lifetime.start.p0(i64 4, ptr %17) #3
  call void @llvm.lifetime.start.p0(i64 4, ptr %18) #3
  store i32 0, ptr %15, align 4, !tbaa !11
  %19 = load i32, ptr %12, align 4, !tbaa !11
  store i32 %19, ptr %16, align 4, !tbaa !11
  br label %20

20:                                               ; preds = %51, %7
  %21 = load i32, ptr %16, align 4, !tbaa !11
  %22 = load i32, ptr %13, align 4, !tbaa !11
  %23 = icmp sle i32 %21, %22
  br i1 %23, label %24, label %54

24:                                               ; preds = %20
  store i32 0, ptr %17, align 4, !tbaa !11
  br label %25

25:                                               ; preds = %47, %24
  %26 = load i32, ptr %17, align 4, !tbaa !11
  %27 = load i32, ptr %14, align 4, !tbaa !11
  %28 = icmp slt i32 %26, %27
  br i1 %28, label %29, label %50

29:                                               ; preds = %25
  %30 = load ptr, ptr %11, align 8, !tbaa !4
  %31 = load i32, ptr %17, align 4, !tbaa !11
  %32 = sext i32 %31 to i64
  %33 = getelementptr inbounds i8, ptr %30, i64 %32
  %34 = load i8, ptr %33, align 1, !tbaa !19
  %35 = zext i8 %34 to i32
  %36 = load i32, ptr %16, align 4, !tbaa !11
  %37 = icmp eq i32 %35, %36
  br i1 %37, label %38, label %46

38:                                               ; preds = %29
  %39 = load i32, ptr %17, align 4, !tbaa !11
  %40 = load ptr, ptr %10, align 8, !tbaa !9
  %41 = load i32, ptr %15, align 4, !tbaa !11
  %42 = sext i32 %41 to i64
  %43 = getelementptr inbounds i32, ptr %40, i64 %42
  store i32 %39, ptr %43, align 4, !tbaa !11
  %44 = load i32, ptr %15, align 4, !tbaa !11
  %45 = add nsw i32 %44, 1
  store i32 %45, ptr %15, align 4, !tbaa !11
  br label %46

46:                                               ; preds = %38, %29
  br label %47

47:                                               ; preds = %46
  %48 = load i32, ptr %17, align 4, !tbaa !11
  %49 = add nsw i32 %48, 1
  store i32 %49, ptr %17, align 4, !tbaa !11
  br label %25, !llvm.loop !25

50:                                               ; preds = %25
  br label %51

51:                                               ; preds = %50
  %52 = load i32, ptr %16, align 4, !tbaa !11
  %53 = add nsw i32 %52, 1
  store i32 %53, ptr %16, align 4, !tbaa !11
  br label %20, !llvm.loop !26

54:                                               ; preds = %20
  store i32 0, ptr %16, align 4, !tbaa !11
  br label %55

55:                                               ; preds = %63, %54
  %56 = load i32, ptr %16, align 4, !tbaa !11
  %57 = icmp slt i32 %56, 23
  br i1 %57, label %58, label %66

58:                                               ; preds = %55
  %59 = load ptr, ptr %9, align 8, !tbaa !9
  %60 = load i32, ptr %16, align 4, !tbaa !11
  %61 = sext i32 %60 to i64
  %62 = getelementptr inbounds i32, ptr %59, i64 %61
  store i32 0, ptr %62, align 4, !tbaa !11
  br label %63

63:                                               ; preds = %58
  %64 = load i32, ptr %16, align 4, !tbaa !11
  %65 = add nsw i32 %64, 1
  store i32 %65, ptr %16, align 4, !tbaa !11
  br label %55, !llvm.loop !27

66:                                               ; preds = %55
  store i32 0, ptr %16, align 4, !tbaa !11
  br label %67

67:                                               ; preds = %84, %66
  %68 = load i32, ptr %16, align 4, !tbaa !11
  %69 = load i32, ptr %14, align 4, !tbaa !11
  %70 = icmp slt i32 %68, %69
  br i1 %70, label %71, label %87

71:                                               ; preds = %67
  %72 = load ptr, ptr %9, align 8, !tbaa !9
  %73 = load ptr, ptr %11, align 8, !tbaa !4
  %74 = load i32, ptr %16, align 4, !tbaa !11
  %75 = sext i32 %74 to i64
  %76 = getelementptr inbounds i8, ptr %73, i64 %75
  %77 = load i8, ptr %76, align 1, !tbaa !19
  %78 = zext i8 %77 to i32
  %79 = add nsw i32 %78, 1
  %80 = sext i32 %79 to i64
  %81 = getelementptr inbounds i32, ptr %72, i64 %80
  %82 = load i32, ptr %81, align 4, !tbaa !11
  %83 = add nsw i32 %82, 1
  store i32 %83, ptr %81, align 4, !tbaa !11
  br label %84

84:                                               ; preds = %71
  %85 = load i32, ptr %16, align 4, !tbaa !11
  %86 = add nsw i32 %85, 1
  store i32 %86, ptr %16, align 4, !tbaa !11
  br label %67, !llvm.loop !28

87:                                               ; preds = %67
  store i32 1, ptr %16, align 4, !tbaa !11
  br label %88

88:                                               ; preds = %104, %87
  %89 = load i32, ptr %16, align 4, !tbaa !11
  %90 = icmp slt i32 %89, 23
  br i1 %90, label %91, label %107

91:                                               ; preds = %88
  %92 = load ptr, ptr %9, align 8, !tbaa !9
  %93 = load i32, ptr %16, align 4, !tbaa !11
  %94 = sub nsw i32 %93, 1
  %95 = sext i32 %94 to i64
  %96 = getelementptr inbounds i32, ptr %92, i64 %95
  %97 = load i32, ptr %96, align 4, !tbaa !11
  %98 = load ptr, ptr %9, align 8, !tbaa !9
  %99 = load i32, ptr %16, align 4, !tbaa !11
  %100 = sext i32 %99 to i64
  %101 = getelementptr inbounds i32, ptr %98, i64 %100
  %102 = load i32, ptr %101, align 4, !tbaa !11
  %103 = add nsw i32 %102, %97
  store i32 %103, ptr %101, align 4, !tbaa !11
  br label %104

104:                                              ; preds = %91
  %105 = load i32, ptr %16, align 4, !tbaa !11
  %106 = add nsw i32 %105, 1
  store i32 %106, ptr %16, align 4, !tbaa !11
  br label %88, !llvm.loop !29

107:                                              ; preds = %88
  store i32 0, ptr %16, align 4, !tbaa !11
  br label %108

108:                                              ; preds = %116, %107
  %109 = load i32, ptr %16, align 4, !tbaa !11
  %110 = icmp slt i32 %109, 23
  br i1 %110, label %111, label %119

111:                                              ; preds = %108
  %112 = load ptr, ptr %8, align 8, !tbaa !9
  %113 = load i32, ptr %16, align 4, !tbaa !11
  %114 = sext i32 %113 to i64
  %115 = getelementptr inbounds i32, ptr %112, i64 %114
  store i32 0, ptr %115, align 4, !tbaa !11
  br label %116

116:                                              ; preds = %111
  %117 = load i32, ptr %16, align 4, !tbaa !11
  %118 = add nsw i32 %117, 1
  store i32 %118, ptr %16, align 4, !tbaa !11
  br label %108, !llvm.loop !30

119:                                              ; preds = %108
  store i32 0, ptr %18, align 4, !tbaa !11
  %120 = load i32, ptr %12, align 4, !tbaa !11
  store i32 %120, ptr %16, align 4, !tbaa !11
  br label %121

121:                                              ; preds = %148, %119
  %122 = load i32, ptr %16, align 4, !tbaa !11
  %123 = load i32, ptr %13, align 4, !tbaa !11
  %124 = icmp sle i32 %122, %123
  br i1 %124, label %125, label %151

125:                                              ; preds = %121
  %126 = load ptr, ptr %9, align 8, !tbaa !9
  %127 = load i32, ptr %16, align 4, !tbaa !11
  %128 = add nsw i32 %127, 1
  %129 = sext i32 %128 to i64
  %130 = getelementptr inbounds i32, ptr %126, i64 %129
  %131 = load i32, ptr %130, align 4, !tbaa !11
  %132 = load ptr, ptr %9, align 8, !tbaa !9
  %133 = load i32, ptr %16, align 4, !tbaa !11
  %134 = sext i32 %133 to i64
  %135 = getelementptr inbounds i32, ptr %132, i64 %134
  %136 = load i32, ptr %135, align 4, !tbaa !11
  %137 = sub nsw i32 %131, %136
  %138 = load i32, ptr %18, align 4, !tbaa !11
  %139 = add nsw i32 %138, %137
  store i32 %139, ptr %18, align 4, !tbaa !11
  %140 = load i32, ptr %18, align 4, !tbaa !11
  %141 = sub nsw i32 %140, 1
  %142 = load ptr, ptr %8, align 8, !tbaa !9
  %143 = load i32, ptr %16, align 4, !tbaa !11
  %144 = sext i32 %143 to i64
  %145 = getelementptr inbounds i32, ptr %142, i64 %144
  store i32 %141, ptr %145, align 4, !tbaa !11
  %146 = load i32, ptr %18, align 4, !tbaa !11
  %147 = shl i32 %146, 1
  store i32 %147, ptr %18, align 4, !tbaa !11
  br label %148

148:                                              ; preds = %125
  %149 = load i32, ptr %16, align 4, !tbaa !11
  %150 = add nsw i32 %149, 1
  store i32 %150, ptr %16, align 4, !tbaa !11
  br label %121, !llvm.loop !31

151:                                              ; preds = %121
  %152 = load i32, ptr %12, align 4, !tbaa !11
  %153 = add nsw i32 %152, 1
  store i32 %153, ptr %16, align 4, !tbaa !11
  br label %154

154:                                              ; preds = %177, %151
  %155 = load i32, ptr %16, align 4, !tbaa !11
  %156 = load i32, ptr %13, align 4, !tbaa !11
  %157 = icmp sle i32 %155, %156
  br i1 %157, label %158, label %180

158:                                              ; preds = %154
  %159 = load ptr, ptr %8, align 8, !tbaa !9
  %160 = load i32, ptr %16, align 4, !tbaa !11
  %161 = sub nsw i32 %160, 1
  %162 = sext i32 %161 to i64
  %163 = getelementptr inbounds i32, ptr %159, i64 %162
  %164 = load i32, ptr %163, align 4, !tbaa !11
  %165 = add nsw i32 %164, 1
  %166 = shl i32 %165, 1
  %167 = load ptr, ptr %9, align 8, !tbaa !9
  %168 = load i32, ptr %16, align 4, !tbaa !11
  %169 = sext i32 %168 to i64
  %170 = getelementptr inbounds i32, ptr %167, i64 %169
  %171 = load i32, ptr %170, align 4, !tbaa !11
  %172 = sub nsw i32 %166, %171
  %173 = load ptr, ptr %9, align 8, !tbaa !9
  %174 = load i32, ptr %16, align 4, !tbaa !11
  %175 = sext i32 %174 to i64
  %176 = getelementptr inbounds i32, ptr %173, i64 %175
  store i32 %172, ptr %176, align 4, !tbaa !11
  br label %177

177:                                              ; preds = %158
  %178 = load i32, ptr %16, align 4, !tbaa !11
  %179 = add nsw i32 %178, 1
  store i32 %179, ptr %16, align 4, !tbaa !11
  br label %154, !llvm.loop !32

180:                                              ; preds = %154
  call void @llvm.lifetime.end.p0(i64 4, ptr %18) #3
  call void @llvm.lifetime.end.p0(i64 4, ptr %17) #3
  call void @llvm.lifetime.end.p0(i64 4, ptr %16) #3
  call void @llvm.lifetime.end.p0(i64 4, ptr %15) #3
  ret void
}